(dp0
S'DEPENDENCIES'
p1
(dp2
S'BROWSER'
p3
(lp4
S'TCPIP'
p5
aS'HTML'
p6
asS'TELNET'
p7
(lp8
S'TCPIP'
p9
aS'NETCARD'
p10
asS'DNS'
p11
(lp12
S'TCPIP'
p13
aS'NETCARD'
p14
asS'TCPIP'
p15
(lp16
S'NETCARD'
p17
assS'INSTALLATIONS'
p18
(dp19
S'NETCARD'
p20
I01
sg6
I01
sS'foo'
p21
I01
sg9
I01
ss.